; ModuleID = '50/1433.c'
source_filename = "50/1433.c"
target datalayout = "e-m:e-p270:32:32-p271:32:32-p272:64:64-i64:64-f80:128-n8:16:32:64-S128"
target triple = "x86_64-pc-linux-gnu"

@.str = private unnamed_addr constant [3 x i8] c"%d\00", align 1
@.str.1 = private unnamed_addr constant [3 x i8] c"1\0A\00", align 1
@.str.2 = private unnamed_addr constant [3 x i8] c"2\0A\00", align 1
@.str.3 = private unnamed_addr constant [3 x i8] c"3\0A\00", align 1
@.str.4 = private unnamed_addr constant [3 x i8] c"4\0A\00", align 1
@.str.5 = private unnamed_addr constant [3 x i8] c"5\0A\00", align 1
@.str.6 = private unnamed_addr constant [3 x i8] c"6\0A\00", align 1
@.str.7 = private unnamed_addr constant [3 x i8] c"7\0A\00", align 1
@.str.8 = private unnamed_addr constant [3 x i8] c"8\0A\00", align 1
@.str.9 = private unnamed_addr constant [3 x i8] c"9\0A\00", align 1
@.str.10 = private unnamed_addr constant [4 x i8] c"10\0A\00", align 1
@.str.11 = private unnamed_addr constant [4 x i8] c"11\0A\00", align 1
@.str.12 = private unnamed_addr constant [4 x i8] c"12\0A\00", align 1

; Function Attrs: noinline nounwind uwtable
define dso_local i32 @main() #0 {
  %1 = alloca i32, align 4
  %2 = alloca i32, align 4
  %3 = alloca i32, align 4
  store i32 0, i32* %1, align 4
  store i32 1, i32* %3, align 4
  %4 = call i32 (i8*, ...) @__isoc99_scanf(i8* getelementptr inbounds ([3 x i8], [3 x i8]* @.str, i64 0, i64 0), i32* %2)
  %5 = load i32, i32* %2, align 4
  %6 = icmp eq i32 %5, 1
  br i1 %6, label %7, label %8

7:                                                ; preds = %0
  store i32 5, i32* %3, align 4
  br label %8

8:                                                ; preds = %7, %0
  %9 = load i32, i32* %2, align 4
  %10 = icmp eq i32 %9, 2
  br i1 %10, label %11, label %12

11:                                               ; preds = %8
  store i32 4, i32* %3, align 4
  br label %12

12:                                               ; preds = %11, %8
  %13 = load i32, i32* %2, align 4
  %14 = icmp eq i32 %13, 3
  br i1 %14, label %15, label %16

15:                                               ; preds = %12
  store i32 3, i32* %3, align 4
  br label %16

16:                                               ; preds = %15, %12
  %17 = load i32, i32* %2, align 4
  %18 = icmp eq i32 %17, 4
  br i1 %18, label %19, label %20

19:                                               ; preds = %16
  store i32 2, i32* %3, align 4
  br label %20

20:                                               ; preds = %19, %16
  %21 = load i32, i32* %2, align 4
  %22 = icmp eq i32 %21, 6
  br i1 %22, label %23, label %24

23:                                               ; preds = %20
  store i32 7, i32* %3, align 4
  br label %24

24:                                               ; preds = %23, %20
  %25 = load i32, i32* %2, align 4
  %26 = icmp eq i32 %25, 7
  br i1 %26, label %27, label %28

27:                                               ; preds = %24
  store i32 6, i32* %3, align 4
  br label %28

28:                                               ; preds = %27, %24
  %29 = load i32, i32* %3, align 4
  %30 = sub nsw i32 13, %29
  %31 = srem i32 %30, 7
  %32 = icmp eq i32 %31, 0
  br i1 %32, label %33, label %35

33:                                               ; preds = %28
  %34 = call i32 (i8*, ...) @printf(i8* getelementptr inbounds ([3 x i8], [3 x i8]* @.str.1, i64 0, i64 0))
  br label %35

35:                                               ; preds = %33, %28
  %36 = load i32, i32* %3, align 4
  %37 = sub nsw i32 44, %36
  %38 = srem i32 %37, 7
  %39 = icmp eq i32 %38, 0
  br i1 %39, label %40, label %42

40:                                               ; preds = %35
  %41 = call i32 (i8*, ...) @printf(i8* getelementptr inbounds ([3 x i8], [3 x i8]* @.str.2, i64 0, i64 0))
  br label %42

42:                                               ; preds = %40, %35
  %43 = load i32, i32* %3, align 4
  %44 = sub nsw i32 72, %43
  %45 = srem i32 %44, 7
  %46 = icmp eq i32 %45, 0
  br i1 %46, label %47, label %49

47:                                               ; preds = %42
  %48 = call i32 (i8*, ...) @printf(i8* getelementptr inbounds ([3 x i8], [3 x i8]* @.str.3, i64 0, i64 0))
  br label %49

49:                                               ; preds = %47, %42
  %50 = load i32, i32* %3, align 4
  %51 = sub nsw i32 103, %50
  %52 = srem i32 %51, 7
  %53 = icmp eq i32 %52, 0
  br i1 %53, label %54, label %56

54:                                               ; preds = %49
  %55 = call i32 (i8*, ...) @printf(i8* getelementptr inbounds ([3 x i8], [3 x i8]* @.str.4, i64 0, i64 0))
  br label %56

56:                                               ; preds = %54, %49
  %57 = load i32, i32* %3, align 4
  %58 = sub nsw i32 133, %57
  %59 = srem i32 %58, 7
  %60 = icmp eq i32 %59, 0
  br i1 %60, label %61, label %63

61:                                               ; preds = %56
  %62 = call i32 (i8*, ...) @printf(i8* getelementptr inbounds ([3 x i8], [3 x i8]* @.str.5, i64 0, i64 0))
  br label %63

63:                                               ; preds = %61, %56
  %64 = load i32, i32* %3, align 4
  %65 = sub nsw i32 164, %64
  %66 = srem i32 %65, 7
  %67 = icmp eq i32 %66, 0
  br i1 %67, label %68, label %70

68:                                               ; preds = %63
  %69 = call i32 (i8*, ...) @printf(i8* getelementptr inbounds ([3 x i8], [3 x i8]* @.str.6, i64 0, i64 0))
  br label %70

70:                                               ; preds = %68, %63
  %71 = load i32, i32* %3, align 4
  %72 = sub nsw i32 194, %71
  %73 = srem i32 %72, 7
  %74 = icmp eq i32 %73, 0
  br i1 %74, label %75, label %77

75:                                               ; preds = %70
  %76 = call i32 (i8*, ...) @printf(i8* getelementptr inbounds ([3 x i8], [3 x i8]* @.str.7, i64 0, i64 0))
  br label %77

77:                                               ; preds = %75, %70
  %78 = load i32, i32* %3, align 4
  %79 = sub nsw i32 225, %78
  %80 = srem i32 %79, 7
  %81 = icmp eq i32 %80, 0
  br i1 %81, label %82, label %84

82:                                               ; preds = %77
  %83 = call i32 (i8*, ...) @printf(i8* getelementptr inbounds ([3 x i8], [3 x i8]* @.str.8, i64 0, i64 0))
  br label %84

84:                                               ; preds = %82, %77
  %85 = load i32, i32* %3, align 4
  %86 = sub nsw i32 256, %85
  %87 = srem i32 %86, 7
  %88 = icmp eq i32 %87, 0
  br i1 %88, label %89, label %91

89:                                               ; preds = %84
  %90 = call i32 (i8*, ...) @printf(i8* getelementptr inbounds ([3 x i8], [3 x i8]* @.str.9, i64 0, i64 0))
  br label %91

91:                                               ; preds = %89, %84
  %92 = load i32, i32* %3, align 4
  %93 = sub nsw i32 286, %92
  %94 = srem i32 %93, 7
  %95 = icmp eq i32 %94, 0
  br i1 %95, label %96, label %98

96:                                               ; preds = %91
  %97 = call i32 (i8*, ...) @printf(i8* getelementptr inbounds ([4 x i8], [4 x i8]* @.str.10, i64 0, i64 0))
  br label %98

98:                                               ; preds = %96, %91
  %99 = load i32, i32* %3, align 4
  %100 = sub nsw i32 317, %99
  %101 = srem i32 %100, 7
  %102 = icmp eq i32 %101, 0
  br i1 %102, label %103, label %105

103:                                              ; preds = %98
  %104 = call i32 (i8*, ...) @printf(i8* getelementptr inbounds ([4 x i8], [4 x i8]* @.str.11, i64 0, i64 0))
  br label %105

105:                                              ; preds = %103, %98
  %106 = load i32, i32* %3, align 4
  %107 = sub nsw i32 347, %106
  %108 = srem i32 %107, 7
  %109 = icmp eq i32 %108, 0
  br i1 %109, label %110, label %112

110:                                              ; preds = %105
  %111 = call i32 (i8*, ...) @printf(i8* getelementptr inbounds ([4 x i8], [4 x i8]* @.str.12, i64 0, i64 0))
  br label %112

112:                                              ; preds = %110, %105
  ret i32 0
}

declare dso_local i32 @__isoc99_scanf(i8*, ...) #1

declare dso_local i32 @printf(i8*, ...) #1


!llvm.module.flags = !{!0}
!llvm.ident = !{!1}

!0 = !{i32 1, !"wchar_size", i32 4}
!1 = !{!"clang version 10.0.0-4ubuntu1 "}
