; ModuleID = 'source-C-CXX/49/1433.c'
source_filename = "source-C-CXX/49/1433.c"
target datalayout = "e-m:e-p270:32:32-p271:32:32-p272:64:64-i64:64-f80:128-n8:16:32:64-S128"
target triple = "x86_64-pc-linux-gnu"

@.str = private unnamed_addr constant [3 x i8] c"%d\00", align 1
@str = private unnamed_addr constant [3 x i8] c"12\00", align 1
@str.13 = private unnamed_addr constant [3 x i8] c"11\00", align 1
@str.14 = private unnamed_addr constant [3 x i8] c"10\00", align 1
@str.15 = private unnamed_addr constant [2 x i8] c"9\00", align 1
@str.16 = private unnamed_addr constant [2 x i8] c"8\00", align 1
@str.17 = private unnamed_addr constant [2 x i8] c"7\00", align 1
@str.18 = private unnamed_addr constant [2 x i8] c"6\00", align 1
@str.19 = private unnamed_addr constant [2 x i8] c"5\00", align 1
@str.20 = private unnamed_addr constant [2 x i8] c"4\00", align 1
@str.21 = private unnamed_addr constant [2 x i8] c"3\00", align 1
@str.22 = private unnamed_addr constant [2 x i8] c"2\00", align 1
@str.23 = private unnamed_addr constant [2 x i8] c"1\00", align 1

; Function Attrs: nofree nounwind sspstrong uwtable
define dso_local i32 @main() local_unnamed_addr #0 {
  %1 = alloca i32, align 4
  %2 = bitcast i32* %1 to i8*
  call void @llvm.lifetime.start.p0i8(i64 4, i8* nonnull %2) #4
  %3 = call i32 (i8*, ...) @__isoc99_scanf(i8* getelementptr inbounds ([3 x i8], [3 x i8]* @.str, i64 0, i64 0), i32* nonnull %1)
  %4 = load i32, i32* %1, align 4, !tbaa !5
  %5 = icmp eq i32 %4, 1
  %6 = select i1 %5, i32 5, i32 1
  %7 = icmp eq i32 %4, 2
  %8 = select i1 %7, i32 4, i32 %6
  %9 = icmp eq i32 %4, 3
  %10 = select i1 %9, i32 3, i32 %8
  %11 = icmp eq i32 %4, 4
  %12 = select i1 %11, i32 2, i32 %10
  %13 = icmp eq i32 %4, 6
  %14 = select i1 %13, i32 7, i32 %12
  %15 = icmp eq i32 %4, 7
  %16 = select i1 %15, i32 6, i32 %14
  %17 = trunc i32 %16 to i8
  %18 = sub nuw nsw i8 13, %17
  %19 = urem i8 %18, 7
  %20 = icmp eq i8 %19, 0
  br i1 %20, label %21, label %23

21:                                               ; preds = %0
  %22 = call i32 @puts(i8* nonnull dereferenceable(1) getelementptr inbounds ([2 x i8], [2 x i8]* @str.23, i64 0, i64 0))
  br label %23

23:                                               ; preds = %21, %0
  %24 = sub nuw nsw i8 44, %17
  %25 = urem i8 %24, 7
  %26 = icmp eq i8 %25, 0
  br i1 %26, label %27, label %29

27:                                               ; preds = %23
  %28 = call i32 @puts(i8* nonnull dereferenceable(1) getelementptr inbounds ([2 x i8], [2 x i8]* @str.22, i64 0, i64 0))
  br label %29

29:                                               ; preds = %27, %23
  %30 = sub nuw nsw i8 72, %17
  %31 = urem i8 %30, 7
  %32 = icmp eq i8 %31, 0
  br i1 %32, label %33, label %35

33:                                               ; preds = %29
  %34 = call i32 @puts(i8* nonnull dereferenceable(1) getelementptr inbounds ([2 x i8], [2 x i8]* @str.21, i64 0, i64 0))
  br label %35

35:                                               ; preds = %33, %29
  %36 = sub nuw nsw i8 103, %17
  %37 = urem i8 %36, 7
  %38 = icmp eq i8 %37, 0
  br i1 %38, label %39, label %41

39:                                               ; preds = %35
  %40 = call i32 @puts(i8* nonnull dereferenceable(1) getelementptr inbounds ([2 x i8], [2 x i8]* @str.20, i64 0, i64 0))
  br label %41

41:                                               ; preds = %39, %35
  %42 = sub nuw i8 -123, %17
  %43 = urem i8 %42, 7
  %44 = icmp eq i8 %43, 0
  br i1 %44, label %45, label %47

45:                                               ; preds = %41
  %46 = call i32 @puts(i8* nonnull dereferenceable(1) getelementptr inbounds ([2 x i8], [2 x i8]* @str.19, i64 0, i64 0))
  br label %47

47:                                               ; preds = %45, %41
  %48 = sub nuw nsw i8 -92, %17
  %49 = urem i8 %48, 7
  %50 = icmp eq i8 %49, 0
  br i1 %50, label %51, label %53

51:                                               ; preds = %47
  %52 = call i32 @puts(i8* nonnull dereferenceable(1) getelementptr inbounds ([2 x i8], [2 x i8]* @str.18, i64 0, i64 0))
  br label %53

53:                                               ; preds = %51, %47
  %54 = sub nuw nsw i8 -62, %17
  %55 = urem i8 %54, 7
  %56 = icmp eq i8 %55, 0
  br i1 %56, label %57, label %59

57:                                               ; preds = %53
  %58 = call i32 @puts(i8* nonnull dereferenceable(1) getelementptr inbounds ([2 x i8], [2 x i8]* @str.17, i64 0, i64 0))
  br label %59

59:                                               ; preds = %57, %53
  %60 = sub nuw nsw i8 -31, %17
  %61 = urem i8 %60, 7
  %62 = icmp eq i8 %61, 0
  br i1 %62, label %63, label %65

63:                                               ; preds = %59
  %64 = call i32 @puts(i8* nonnull dereferenceable(1) getelementptr inbounds ([2 x i8], [2 x i8]* @str.16, i64 0, i64 0))
  br label %65

65:                                               ; preds = %63, %59
  %66 = sub nsw i8 0, %17
  %67 = urem i8 %66, 7
  %68 = icmp eq i8 %67, 0
  br i1 %68, label %69, label %71

69:                                               ; preds = %65
  %70 = call i32 @puts(i8* nonnull dereferenceable(1) getelementptr inbounds ([2 x i8], [2 x i8]* @str.15, i64 0, i64 0))
  br label %71

71:                                               ; preds = %69, %65
  %72 = trunc i32 %16 to i16
  %73 = sub nuw nsw i16 286, %72
  %74 = urem i16 %73, 7
  %75 = icmp eq i16 %74, 0
  br i1 %75, label %76, label %78

76:                                               ; preds = %71
  %77 = call i32 @puts(i8* nonnull dereferenceable(1) getelementptr inbounds ([3 x i8], [3 x i8]* @str.14, i64 0, i64 0))
  br label %78

78:                                               ; preds = %76, %71
  %79 = sub nuw nsw i16 317, %72
  %80 = urem i16 %79, 7
  %81 = icmp eq i16 %80, 0
  br i1 %81, label %82, label %84

82:                                               ; preds = %78
  %83 = call i32 @puts(i8* nonnull dereferenceable(1) getelementptr inbounds ([3 x i8], [3 x i8]* @str.13, i64 0, i64 0))
  br label %84

84:                                               ; preds = %82, %78
  %85 = sub nuw nsw i16 347, %72
  %86 = urem i16 %85, 7
  %87 = icmp eq i16 %86, 0
  br i1 %87, label %88, label %90

88:                                               ; preds = %84
  %89 = call i32 @puts(i8* nonnull dereferenceable(1) getelementptr inbounds ([3 x i8], [3 x i8]* @str, i64 0, i64 0))
  br label %90

90:                                               ; preds = %88, %84
  call void @llvm.lifetime.end.p0i8(i64 4, i8* nonnull %2) #4
  ret i32 0
}

; Function Attrs: argmemonly mustprogress nofree nosync nounwind willreturn
declare void @llvm.lifetime.start.p0i8(i64 immarg, i8* nocapture) #1

; Function Attrs: nofree nounwind
declare noundef i32 @__isoc99_scanf(i8* nocapture noundef readonly, ...) local_unnamed_addr #2

; Function Attrs: argmemonly mustprogress nofree nosync nounwind willreturn
declare void @llvm.lifetime.end.p0i8(i64 immarg, i8* nocapture) #1

; Function Attrs: nofree nounwind
declare noundef i32 @puts(i8* nocapture noundef readonly) local_unnamed_addr #3


!llvm.module.flags = !{!0, !1, !2, !3}
!llvm.ident = !{!4}

!0 = !{i32 1, !"wchar_size", i32 4}
!1 = !{i32 7, !"PIC Level", i32 2}
!2 = !{i32 7, !"PIE Level", i32 2}
!3 = !{i32 7, !"uwtable", i32 1}
!4 = !{!"clang version 13.0.0"}
!5 = !{!6, !6, i64 0}
!6 = !{!"int", !7, i64 0}
!7 = !{!"omnipotent char", !8, i64 0}
!8 = !{!"Simple C/C++ TBAA"}
